target datalayout = "e-m:e-p270:32:32-p271:32:32-p272:64:64-i64:64-i128:128-f80:128-n8:16:32:64-S128"
target triple = "x86_64-pc-linux-gnu"

%struct.test_fixture = type { ptr, ptr, ptr, ptr, ptr, ptr, i32, ptr, ptr, ptr, i32, i32, i32 }

@endentity1 = internal global ptr null, align 8
@endentity2 = internal global ptr null, align 8
@root = internal global ptr null, align 8
@.str.14 = private unnamed_addr constant [35 x i8] c"../openssl/test/cmp_protect_test.c\00", align 1
@.str.58 = private unnamed_addr constant [47 x i8] c"test_cmp_build_cert_chain_missing_intermediate\00", align 1
@.str.88 = private unnamed_addr constant [36 x i8] c"fixture->certs = sk_X509_new_null()\00", align 1
@.str.89 = private unnamed_addr constant [36 x i8] c"fixture->chain = sk_X509_new_null()\00", align 1
@.str.90 = private unnamed_addr constant [41 x i8] c"sk_X509_push(fixture->certs, endentity1)\00", align 1
@.str.91 = private unnamed_addr constant [35 x i8] c"sk_X509_push(fixture->certs, root)\00", align 1
@.str.93 = private unnamed_addr constant [41 x i8] c"sk_X509_push(fixture->chain, endentity2)\00", align 1

; Function Attrs: nounwind uwtable
define internal void @tear_down(ptr noundef %0) #0 {
  %2 = alloca ptr, align 8
  store ptr %0, ptr %2, align 8, !tbaa !19
  %3 = load ptr, ptr %2, align 8, !tbaa !19
  %4 = icmp ne ptr %3, null
  br i1 %4, label %5, label %27

5:                                                ; preds = %1
  %6 = load ptr, ptr %2, align 8, !tbaa !19
  %7 = getelementptr inbounds nuw %struct.test_fixture, ptr %6, i32 0, i32 1
  %8 = load ptr, ptr %7, align 8, !tbaa !40
  call void @OSSL_CMP_CTX_free(ptr noundef %8)
  %9 = load ptr, ptr %2, align 8, !tbaa !19
  %10 = getelementptr inbounds nuw %struct.test_fixture, ptr %9, i32 0, i32 2
  %11 = load ptr, ptr %10, align 8, !tbaa !23
  call void @OSSL_CMP_MSG_free(ptr noundef %11)
  %12 = load ptr, ptr %2, align 8, !tbaa !19
  %13 = getelementptr inbounds nuw %struct.test_fixture, ptr %12, i32 0, i32 3
  %14 = load ptr, ptr %13, align 8, !tbaa !51
  call void @OSSL_CMP_PKISI_free(ptr noundef %14)
  %15 = load ptr, ptr %2, align 8, !tbaa !19
  %16 = getelementptr inbounds nuw %struct.test_fixture, ptr %15, i32 0, i32 5
  %17 = load ptr, ptr %16, align 8, !tbaa !52
  call void @CRYPTO_free(ptr noundef %17, ptr noundef @.str.14, i32 noundef 46)
  %18 = load ptr, ptr %2, align 8, !tbaa !19
  %19 = getelementptr inbounds nuw %struct.test_fixture, ptr %18, i32 0, i32 8
  %20 = load ptr, ptr %19, align 8, !tbaa !47
  %21 = call ptr @ossl_check_X509_sk_type(ptr noundef %20)
  call void @OPENSSL_sk_free(ptr noundef %21)
  %22 = load ptr, ptr %2, align 8, !tbaa !19
  %23 = getelementptr inbounds nuw %struct.test_fixture, ptr %22, i32 0, i32 9
  %24 = load ptr, ptr %23, align 8, !tbaa !48
  %25 = call ptr @ossl_check_X509_sk_type(ptr noundef %24)
  call void @OPENSSL_sk_free(ptr noundef %25)
  %26 = load ptr, ptr %2, align 8, !tbaa !19
  call void @CRYPTO_free(ptr noundef %26, ptr noundef @.str.14, i32 noundef 50)
  br label %27

27:                                               ; preds = %5, %1
  ret void
}

; Function Attrs: inlinehint nounwind uwtable
define internal ptr @ossl_check_X509_type(ptr noundef %0) #3 {
  %2 = alloca ptr, align 8
  store ptr %0, ptr %2, align 8, !tbaa !11
  %3 = load ptr, ptr %2, align 8, !tbaa !11
  ret ptr %3
}

; Function Attrs: inlinehint nounwind uwtable
define internal ptr @ossl_check_X509_sk_type(ptr noundef %0) #3 {
  %2 = alloca ptr, align 8
  store ptr %0, ptr %2, align 8, !tbaa !54
  %3 = load ptr, ptr %2, align 8, !tbaa !54
  ret ptr %3
}

; Function Attrs: nounwind uwtable
define internal i32 @test_cmp_build_cert_chain_missing_intermediate() #0 {
  %1 = alloca i32, align 4
  %2 = alloca ptr, align 8
  %3 = alloca i32, align 4
  %4 = alloca i32, align 4
  call void @llvm.lifetime.start.p0(i64 8, ptr %2) #5
  %5 = call ptr @set_up(ptr noundef @.str.58)
  store ptr %5, ptr %2, align 8, !tbaa !19
  call void @llvm.lifetime.start.p0(i64 4, ptr %3) #5
  store i32 0, ptr %3, align 4, !tbaa !21
  %6 = load ptr, ptr %2, align 8, !tbaa !19
  %7 = icmp eq ptr %6, null
  br i1 %7, label %8, label %9

8:                                                ; preds = %0
  store i32 0, ptr %1, align 4
  store i32 1, ptr %4, align 4
  br label %75

9:                                                ; preds = %0
  %10 = load ptr, ptr %2, align 8, !tbaa !19
  %11 = getelementptr inbounds nuw %struct.test_fixture, ptr %10, i32 0, i32 12
  store i32 0, ptr %11, align 8, !tbaa !43
  %12 = load ptr, ptr %2, align 8, !tbaa !19
  %13 = getelementptr inbounds nuw %struct.test_fixture, ptr %12, i32 0, i32 10
  store i32 0, ptr %13, align 8, !tbaa !45
  %14 = load ptr, ptr @endentity2, align 8, !tbaa !11
  %15 = load ptr, ptr %2, align 8, !tbaa !19
  %16 = getelementptr inbounds nuw %struct.test_fixture, ptr %15, i32 0, i32 7
  store ptr %14, ptr %16, align 8, !tbaa !46
  %17 = call ptr @OPENSSL_sk_new_null()
  %18 = load ptr, ptr %2, align 8, !tbaa !19
  %19 = getelementptr inbounds nuw %struct.test_fixture, ptr %18, i32 0, i32 8
  store ptr %17, ptr %19, align 8, !tbaa !47
  %20 = call i32 @test_ptr(ptr noundef @.str.14, i32 noundef 404, ptr noundef @.str.88, ptr noundef %17)
  %21 = icmp ne i32 %20, 0
  br i1 %21, label %22, label %64

22:                                               ; preds = %9
  %23 = call ptr @OPENSSL_sk_new_null()
  %24 = load ptr, ptr %2, align 8, !tbaa !19
  %25 = getelementptr inbounds nuw %struct.test_fixture, ptr %24, i32 0, i32 9
  store ptr %23, ptr %25, align 8, !tbaa !48
  %26 = call i32 @test_ptr(ptr noundef @.str.14, i32 noundef 405, ptr noundef @.str.89, ptr noundef %23)
  %27 = icmp ne i32 %26, 0
  br i1 %27, label %28, label %64

28:                                               ; preds = %22
  %29 = load ptr, ptr %2, align 8, !tbaa !19
  %30 = getelementptr inbounds nuw %struct.test_fixture, ptr %29, i32 0, i32 8
  %31 = load ptr, ptr %30, align 8, !tbaa !47
  %32 = call ptr @ossl_check_X509_sk_type(ptr noundef %31)
  %33 = load ptr, ptr @endentity1, align 8, !tbaa !11
  %34 = call ptr @ossl_check_X509_type(ptr noundef %33)
  %35 = call i32 @OPENSSL_sk_push(ptr noundef %32, ptr noundef %34)
  %36 = icmp ne i32 %35, 0
  %37 = zext i1 %36 to i32
  %38 = call i32 @test_true(ptr noundef @.str.14, i32 noundef 406, ptr noundef @.str.90, i32 noundef %37)
  %39 = icmp ne i32 %38, 0
  br i1 %39, label %40, label %64

40:                                               ; preds = %28
  %41 = load ptr, ptr %2, align 8, !tbaa !19
  %42 = getelementptr inbounds nuw %struct.test_fixture, ptr %41, i32 0, i32 8
  %43 = load ptr, ptr %42, align 8, !tbaa !47
  %44 = call ptr @ossl_check_X509_sk_type(ptr noundef %43)
  %45 = load ptr, ptr @root, align 8, !tbaa !11
  %46 = call ptr @ossl_check_X509_type(ptr noundef %45)
  %47 = call i32 @OPENSSL_sk_push(ptr noundef %44, ptr noundef %46)
  %48 = icmp ne i32 %47, 0
  %49 = zext i1 %48 to i32
  %50 = call i32 @test_true(ptr noundef @.str.14, i32 noundef 407, ptr noundef @.str.91, i32 noundef %49)
  %51 = icmp ne i32 %50, 0
  br i1 %51, label %52, label %64

52:                                               ; preds = %40
  %53 = load ptr, ptr %2, align 8, !tbaa !19
  %54 = getelementptr inbounds nuw %struct.test_fixture, ptr %53, i32 0, i32 9
  %55 = load ptr, ptr %54, align 8, !tbaa !48
  %56 = call ptr @ossl_check_X509_sk_type(ptr noundef %55)
  %57 = load ptr, ptr @endentity2, align 8, !tbaa !11
  %58 = call ptr @ossl_check_X509_type(ptr noundef %57)
  %59 = call i32 @OPENSSL_sk_push(ptr noundef %56, ptr noundef %58)
  %60 = icmp ne i32 %59, 0
  %61 = zext i1 %60 to i32
  %62 = call i32 @test_true(ptr noundef @.str.14, i32 noundef 408, ptr noundef @.str.93, i32 noundef %61)
  %63 = icmp ne i32 %62, 0
  br i1 %63, label %66, label %64

64:                                               ; preds = %52, %40, %28, %22, %9
  %65 = load ptr, ptr %2, align 8, !tbaa !19
  call void @tear_down(ptr noundef %65)
  store ptr null, ptr %2, align 8, !tbaa !19
  br label %66

66:                                               ; preds = %64, %52
  %67 = load ptr, ptr %2, align 8, !tbaa !19
  %68 = icmp ne ptr %67, null
  br i1 %68, label %69, label %73

69:                                               ; preds = %66
  %70 = load ptr, ptr %2, align 8, !tbaa !19
  %71 = call i32 @execute_cmp_build_cert_chain_test(ptr noundef %70)
  store i32 %71, ptr %3, align 4, !tbaa !21
  %72 = load ptr, ptr %2, align 8, !tbaa !19
  call void @tear_down(ptr noundef %72)
  br label %73

73:                                               ; preds = %69, %66
  %74 = load i32, ptr %3, align 4, !tbaa !21
  store i32 %74, ptr %1, align 4
  store i32 1, ptr %4, align 4
  br label %75

75:                                               ; preds = %73, %8
  call void @llvm.lifetime.end.p0(i64 4, ptr %3) #5
  call void @llvm.lifetime.end.p0(i64 8, ptr %2) #5
  %76 = load i32, ptr %1, align 4
  ret i32 %76
}