; Function Attrs: nounwind uwtable
define internal i32 @test_cmp_build_cert_chain_missing_intermediate() #0 {
  %1 = tail call fastcc ptr @set_up(ptr noundef nonnull @.str.58)
  %2 = icmp eq ptr %1, null
  br i1 %2, label %56, label %3

3:                                                ; preds = %0
  %4 = getelementptr inbounds nuw i8, ptr %1, i64 88
  store i32 0, ptr %4, align 8, !tbaa !43
  %5 = getelementptr inbounds nuw i8, ptr %1, i64 80
  store i32 0, ptr %5, align 8, !tbaa !44
  %6 = load ptr, ptr @endentity2, align 8, !tbaa !11
  %7 = getelementptr inbounds nuw i8, ptr %1, i64 56
  store ptr %6, ptr %7, align 8, !tbaa !45
  %8 = tail call ptr @OPENSSL_sk_new_null() #5
  %9 = getelementptr inbounds nuw i8, ptr %1, i64 64
  store ptr %8, ptr %9, align 8, !tbaa !39
  %10 = tail call i32 @test_ptr(ptr noundef nonnull @.str.14, i32 noundef 404, ptr noundef nonnull @.str.88, ptr noundef %8) #5
  %.not = icmp eq i32 %10, 0
  br i1 %.not, label %.thread, label %11

11:                                               ; preds = %3
  %12 = tail call ptr @OPENSSL_sk_new_null() #5
  %13 = getelementptr inbounds nuw i8, ptr %1, i64 72
  store ptr %12, ptr %13, align 8, !tbaa !40
  %14 = tail call i32 @test_ptr(ptr noundef nonnull @.str.14, i32 noundef 405, ptr noundef nonnull @.str.89, ptr noundef %12) #5
  %.not17 = icmp eq i32 %14, 0
  br i1 %.not17, label %.thread, label %15

15:                                               ; preds = %11
  %16 = load ptr, ptr %9, align 8, !tbaa !39
  %17 = load ptr, ptr @endentity1, align 8, !tbaa !11
  %18 = tail call i32 @OPENSSL_sk_push(ptr noundef %16, ptr noundef %17) #5
  %19 = icmp ne i32 %18, 0
  %20 = zext i1 %19 to i32
  %21 = tail call i32 @test_true(ptr noundef nonnull @.str.14, i32 noundef 406, ptr noundef nonnull @.str.90, i32 noundef %20) #5
  %.not18 = icmp eq i32 %21, 0
  br i1 %.not18, label %.thread, label %22

22:                                               ; preds = %15
  %23 = load ptr, ptr %9, align 8, !tbaa !39
  %24 = load ptr, ptr @root, align 8, !tbaa !11
  %25 = tail call i32 @OPENSSL_sk_push(ptr noundef %23, ptr noundef %24) #5
  %26 = icmp ne i32 %25, 0
  %27 = zext i1 %26 to i32
  %28 = tail call i32 @test_true(ptr noundef nonnull @.str.14, i32 noundef 407, ptr noundef nonnull @.str.91, i32 noundef %27) #5
  %.not19 = icmp eq i32 %28, 0
  br i1 %.not19, label %.thread, label %29

29:                                               ; preds = %22
  %30 = load ptr, ptr %13, align 8, !tbaa !40
  %31 = load ptr, ptr @endentity2, align 8, !tbaa !11
  %32 = tail call i32 @OPENSSL_sk_push(ptr noundef %30, ptr noundef %31) #5
  %33 = icmp ne i32 %32, 0
  %34 = zext i1 %33 to i32
  %35 = tail call i32 @test_true(ptr noundef nonnull @.str.14, i32 noundef 408, ptr noundef nonnull @.str.93, i32 noundef %34) #5
  %.not20 = icmp eq i32 %35, 0
  br i1 %.not20, label %.thread, label %tear_down.exit23

.thread:                                          ; preds = %3, %11, %15, %22, %29
  %36 = getelementptr inbounds nuw i8, ptr %1, i64 8
  %37 = load ptr, ptr %36, align 8, !tbaa !36
  tail call void @OSSL_CMP_CTX_free(ptr noundef %37) #5
  %38 = getelementptr inbounds nuw i8, ptr %1, i64 16
  %39 = load ptr, ptr %38, align 8, !tbaa !19
  tail call void @OSSL_CMP_MSG_free(ptr noundef %39) #5
  %40 = getelementptr inbounds nuw i8, ptr %1, i64 24
  %41 = load ptr, ptr %40, align 8, !tbaa !37
  tail call void @OSSL_CMP_PKISI_free(ptr noundef %41) #5
  %42 = getelementptr inbounds nuw i8, ptr %1, i64 40
  %43 = load ptr, ptr %42, align 8, !tbaa !38
  tail call void @CRYPTO_free(ptr noundef %43, ptr noundef nonnull @.str.14, i32 noundef 46) #5
  %44 = load ptr, ptr %9, align 8, !tbaa !39
  tail call void @OPENSSL_sk_free(ptr noundef %44) #5
  %45 = getelementptr inbounds nuw i8, ptr %1, i64 72
  br label %.sink.split

tear_down.exit23:                                 ; preds = %29
  %46 = tail call fastcc i32 @execute_cmp_build_cert_chain_test(ptr noundef %1)
  %47 = getelementptr inbounds nuw i8, ptr %1, i64 8
  %48 = load ptr, ptr %47, align 8, !tbaa !36
  tail call void @OSSL_CMP_CTX_free(ptr noundef %48) #5
  %49 = getelementptr inbounds nuw i8, ptr %1, i64 16
  %50 = load ptr, ptr %49, align 8, !tbaa !19
  tail call void @OSSL_CMP_MSG_free(ptr noundef %50) #5
  %51 = getelementptr inbounds nuw i8, ptr %1, i64 24
  %52 = load ptr, ptr %51, align 8, !tbaa !37
  tail call void @OSSL_CMP_PKISI_free(ptr noundef %52) #5
  %53 = getelementptr inbounds nuw i8, ptr %1, i64 40
  %54 = load ptr, ptr %53, align 8, !tbaa !38
  tail call void @CRYPTO_free(ptr noundef %54, ptr noundef nonnull @.str.14, i32 noundef 46) #5
  %55 = load ptr, ptr %9, align 8, !tbaa !39
  tail call void @OPENSSL_sk_free(ptr noundef %55) #5
  br label %.sink.split

.sink.split:                                      ; preds = %tear_down.exit23, %.thread
  %.sink.in = phi ptr [ %45, %.thread ], [ %13, %tear_down.exit23 ]
  %.015.ph = phi i32 [ 0, %.thread ], [ %46, %tear_down.exit23 ]
  %.sink = load ptr, ptr %.sink.in, align 8, !tbaa !40
  tail call void @OPENSSL_sk_free(ptr noundef %.sink) #5
  tail call void @CRYPTO_free(ptr noundef nonnull %1, ptr noundef nonnull @.str.14, i32 noundef 50) #5
  br label %56

56:                                               ; preds = %.sink.split, %0
  %.015 = phi i32 [ 0, %0 ], [ %.015.ph, %.sink.split ]
  ret i32 %.015
}